target datalayout = "e-m:e-p270:32:32-p271:32:32-p272:64:64-i64:64-i128:128-f80:128-n8:16:32:64-S128"
target triple = "x86_64-pc-linux-gnu"

%struct.tng_trajectory = type { ptr, ptr, i64, ptr, ptr, ptr, ptr, ptr, ptr, i8, i8, ptr, ptr, ptr, ptr, ptr, ptr, ptr, ptr, ptr, i64, i64, i8, i64, i64, i64, double, i64, ptr, ptr, i64, i64, i64, i64, i64, %struct.tng_trajectory_frame_set, i64, i64, i64, i32, ptr, i32, ptr, ptr, ptr, double }
%struct.tng_trajectory_frame_set = type { i64, ptr, i64, i64, i64, i64, ptr, i64, i64, i64, i64, i64, i64, i64, double, i32, ptr, i32, ptr }
%struct.tng_gen_block = type { i64, i64, i64, [16 x i8], ptr, i64, i64, i64, ptr, i64, i64, ptr, ptr, ptr }
%struct.md5_state_s = type { [2 x i32], [4 x i32], [64 x i8] }

@stderr = external global ptr, align 8
@.str = private unnamed_addr constant [45 x i8] c"TNG library: Cannot allocate memory. %s: %d\0A\00", align 1
@.str.1 = private unnamed_addr constant [130 x i8] c"generated/home/dtcxzyw/WorkSpace/Projects/compilers/llvm-opt-benchmark/bench/gromacs/gromacs/src/external/tng_io/src/lib/tng_io.c\00", align 1
@.str.30 = private unnamed_addr constant [40 x i8] c"TNG library: Cannot read block. %s: %d\0A\00", align 1

; Function Attrs: nounwind uwtable
define internal i32 @tng_block_md5_hash_generate(ptr noundef %0) #0 {
  %2 = alloca ptr, align 8
  %3 = alloca %struct.md5_state_s, align 4
  store ptr %0, ptr %2, align 8, !tbaa !221
  call void @llvm.lifetime.start.p0(i64 88, ptr %3) #11
  call void @md5_init(ptr noundef %3)
  %4 = load ptr, ptr %2, align 8, !tbaa !221
  %5 = getelementptr inbounds nuw %struct.tng_gen_block, ptr %4, i32 0, i32 13
  %6 = load ptr, ptr %5, align 8, !tbaa !240
  %7 = load ptr, ptr %2, align 8, !tbaa !221
  %8 = getelementptr inbounds nuw %struct.tng_gen_block, ptr %7, i32 0, i32 1
  %9 = load i64, ptr %8, align 8, !tbaa !241
  %10 = trunc i64 %9 to i32
  call void @md5_append(ptr noundef %3, ptr noundef %6, i32 noundef %10)
  %11 = load ptr, ptr %2, align 8, !tbaa !221
  %12 = getelementptr inbounds nuw %struct.tng_gen_block, ptr %11, i32 0, i32 3
  %13 = getelementptr inbounds [16 x i8], ptr %12, i64 0, i64 0
  call void @md5_finish(ptr noundef %3, ptr noundef %13)
  call void @llvm.lifetime.end.p0(i64 88, ptr %3) #11
  ret i32 0
}

; Function Attrs: nounwind uwtable
define internal i32 @tng_md5_hash_update(ptr noundef %0, ptr noundef %1, i64 noundef %2, i64 noundef %3) #0 {
  %5 = alloca i32, align 4
  %6 = alloca ptr, align 8
  %7 = alloca ptr, align 8
  %8 = alloca i64, align 8
  %9 = alloca i64, align 8
  store ptr %0, ptr %6, align 8, !tbaa !3
  store ptr %1, ptr %7, align 8, !tbaa !221
  store i64 %2, ptr %8, align 8, !tbaa !26
  store i64 %3, ptr %9, align 8, !tbaa !26
  %10 = load ptr, ptr %7, align 8, !tbaa !221
  %11 = getelementptr inbounds nuw %struct.tng_gen_block, ptr %10, i32 0, i32 13
  %12 = load ptr, ptr %11, align 8, !tbaa !240
  %13 = icmp ne ptr %12, null
  br i1 %13, label %14, label %18

14:                                               ; preds = %4
  %15 = load ptr, ptr %7, align 8, !tbaa !221
  %16 = getelementptr inbounds nuw %struct.tng_gen_block, ptr %15, i32 0, i32 13
  %17 = load ptr, ptr %16, align 8, !tbaa !240
  call void @free(ptr noundef %17) #11
  br label %18

18:                                               ; preds = %14, %4
  %19 = load ptr, ptr %7, align 8, !tbaa !221
  %20 = getelementptr inbounds nuw %struct.tng_gen_block, ptr %19, i32 0, i32 1
  %21 = load i64, ptr %20, align 8, !tbaa !241
  %22 = call noalias ptr @malloc(i64 noundef %21) #13
  %23 = load ptr, ptr %7, align 8, !tbaa !221
  %24 = getelementptr inbounds nuw %struct.tng_gen_block, ptr %23, i32 0, i32 13
  store ptr %22, ptr %24, align 8, !tbaa !240
  %25 = load ptr, ptr %7, align 8, !tbaa !221
  %26 = getelementptr inbounds nuw %struct.tng_gen_block, ptr %25, i32 0, i32 13
  %27 = load ptr, ptr %26, align 8, !tbaa !240
  %28 = icmp ne ptr %27, null
  br i1 %28, label %32, label %29

29:                                               ; preds = %18
  %30 = load ptr, ptr @stderr, align 8, !tbaa !24
  %31 = call i32 (ptr, ptr, ...) @fprintf(ptr noundef %30, ptr noundef @.str, ptr noundef @.str.1, i32 noundef 1189) #11
  store i32 2, ptr %5, align 4
  br label %68

32:                                               ; preds = %18
  %33 = load ptr, ptr %6, align 8, !tbaa !3
  %34 = getelementptr inbounds nuw %struct.tng_trajectory, ptr %33, i32 0, i32 4
  %35 = load ptr, ptr %34, align 8, !tbaa !139
  %36 = load i64, ptr %9, align 8, !tbaa !26
  %37 = call i32 @fseeko64(ptr noundef %35, i64 noundef %36, i32 noundef 0)
  %38 = load ptr, ptr %7, align 8, !tbaa !221
  %39 = getelementptr inbounds nuw %struct.tng_gen_block, ptr %38, i32 0, i32 13
  %40 = load ptr, ptr %39, align 8, !tbaa !240
  %41 = load ptr, ptr %7, align 8, !tbaa !221
  %42 = getelementptr inbounds nuw %struct.tng_gen_block, ptr %41, i32 0, i32 1
  %43 = load i64, ptr %42, align 8, !tbaa !241
  %44 = load ptr, ptr %6, align 8, !tbaa !3
  %45 = getelementptr inbounds nuw %struct.tng_trajectory, ptr %44, i32 0, i32 4
  %46 = load ptr, ptr %45, align 8, !tbaa !139
  %47 = call i64 @fread(ptr noundef %40, i64 noundef %43, i64 noundef 1, ptr noundef %46)
  %48 = icmp eq i64 %47, 0
  br i1 %48, label %49, label %52

49:                                               ; preds = %32
  %50 = load ptr, ptr @stderr, align 8, !tbaa !24
  %51 = call i32 (ptr, ptr, ...) @fprintf(ptr noundef %50, ptr noundef @.str.30, ptr noundef @.str.1, i32 noundef 1196) #11
  store i32 2, ptr %5, align 4
  br label %68

52:                                               ; preds = %32
  %53 = load ptr, ptr %7, align 8, !tbaa !221
  %54 = call i32 @tng_block_md5_hash_generate(ptr noundef %53)
  %55 = load ptr, ptr %6, align 8, !tbaa !3
  %56 = getelementptr inbounds nuw %struct.tng_trajectory, ptr %55, i32 0, i32 4
  %57 = load ptr, ptr %56, align 8, !tbaa !139
  %58 = load i64, ptr %8, align 8, !tbaa !26
  %59 = add i64 %58, 24
  %60 = call i32 @fseeko64(ptr noundef %57, i64 noundef %59, i32 noundef 0)
  %61 = load ptr, ptr %7, align 8, !tbaa !221
  %62 = getelementptr inbounds nuw %struct.tng_gen_block, ptr %61, i32 0, i32 3
  %63 = getelementptr inbounds [16 x i8], ptr %62, i64 0, i64 0
  %64 = load ptr, ptr %6, align 8, !tbaa !3
  %65 = getelementptr inbounds nuw %struct.tng_trajectory, ptr %64, i32 0, i32 4
  %66 = load ptr, ptr %65, align 8, !tbaa !139
  %67 = call i64 @fwrite(ptr noundef %63, i64 noundef 16, i64 noundef 1, ptr noundef %66)
  store i32 0, ptr %5, align 4
  br label %68

68:                                               ; preds = %52, %49, %29
  %69 = load i32, ptr %5, align 4
  ret i32 %69
}