; Function Attrs: nounwind uwtable
define internal fastcc void @tng_md5_hash_update(ptr noundef readonly captures(none) %0, ptr noundef %1, i64 noundef %2, i64 noundef %3) unnamed_addr #4 {
  %5 = alloca %struct.md5_state_s, align 4
  %6 = getelementptr inbounds nuw i8, ptr %1, i64 112
  %7 = load ptr, ptr %6, align 8, !tbaa !189
  %.not = icmp eq ptr %7, null
  br i1 %.not, label %9, label %8

8:                                                ; preds = %4
  tail call void @free(ptr noundef nonnull %7) #26
  br label %9

9:                                                ; preds = %8, %4
  %10 = getelementptr inbounds nuw i8, ptr %1, i64 8
  %11 = load i64, ptr %10, align 8, !tbaa !224
  %12 = tail call noalias ptr @malloc(i64 noundef %11) #28
  store ptr %12, ptr %6, align 8, !tbaa !189
  %.not16 = icmp eq ptr %12, null
  br i1 %.not16, label %13, label %16

13:                                               ; preds = %9
  %14 = load ptr, ptr @stderr, align 8, !tbaa !14
  %15 = tail call i32 (ptr, ptr, ...) @fprintf(ptr noundef %14, ptr noundef nonnull @.str, ptr noundef nonnull @.str.1, i32 noundef 1189) #29
  br label %38

16:                                               ; preds = %9
  %17 = getelementptr inbounds nuw i8, ptr %0, i64 32
  %18 = load ptr, ptr %17, align 8, !tbaa !138
  %19 = tail call i32 @fseeko64(ptr noundef %18, i64 noundef %3, i32 noundef 0)
  %20 = load ptr, ptr %6, align 8, !tbaa !189
  %21 = load i64, ptr %10, align 8, !tbaa !224
  %22 = load ptr, ptr %17, align 8, !tbaa !138
  %23 = tail call i64 @fread(ptr noundef %20, i64 noundef %21, i64 noundef 1, ptr noundef %22)
  %24 = icmp eq i64 %23, 0
  br i1 %24, label %25, label %28

25:                                               ; preds = %16
  %26 = load ptr, ptr @stderr, align 8, !tbaa !14
  %27 = tail call i32 (ptr, ptr, ...) @fprintf(ptr noundef %26, ptr noundef nonnull @.str.30, ptr noundef nonnull @.str.1, i32 noundef 1196) #29
  br label %38

28:                                               ; preds = %16
  call void @llvm.lifetime.start.p0(i64 88, ptr nonnull %5) #26
  call void @md5_init(ptr noundef nonnull %5) #26
  %29 = load ptr, ptr %6, align 8, !tbaa !189
  %30 = load i64, ptr %10, align 8, !tbaa !224
  %31 = trunc i64 %30 to i32
  call void @md5_append(ptr noundef nonnull %5, ptr noundef %29, i32 noundef %31) #26
  %32 = getelementptr inbounds nuw i8, ptr %1, i64 24
  call void @md5_finish(ptr noundef nonnull %5, ptr noundef nonnull %32) #26
  call void @llvm.lifetime.end.p0(i64 88, ptr nonnull %5) #26
  %33 = load ptr, ptr %17, align 8, !tbaa !138
  %34 = add i64 %2, 24
  %35 = call i32 @fseeko64(ptr noundef %33, i64 noundef %34, i32 noundef 0)
  %36 = load ptr, ptr %17, align 8, !tbaa !138
  %37 = call i64 @fwrite(ptr noundef nonnull %32, i64 noundef 16, i64 noundef 1, ptr noundef %36)
  br label %38

38:                                               ; preds = %28, %25, %13
  ret void
}